; Function Attrs: mustprogress nofree norecurse nosync nounwind willreturn memory(argmem: write) uwtable
define internal noundef zeroext i1 @"_ZNSt17_Function_handlerIFNSt7__cxx1112basic_stringIcSt11char_traitsIcESaIcEEERKS5_EZN12_GLOBAL__N_112WriteDepfileE15cmDepfileFormatRSt14basic_ofstreamIcS3_ERK16cmLocalGeneratorRKSt6vectorI20cmGccStyleDependencySaISI_EEE3$_1E10_M_managerERSt9_Any_dataRKSP_St18_Manager_operation"(ptr noundef nonnull writeonly align 8 captures(none) dereferenceable(16) %0, ptr noundef nonnull align 8 dereferenceable(16) %1, i32 noundef %2) #11 align 2 personality ptr @__gxx_personality_v0 {
  switch i32 %2, label %"_ZNSt14_Function_base13_Base_managerIZN12_GLOBAL__N_112WriteDepfileE15cmDepfileFormatRSt14basic_ofstreamIcSt11char_traitsIcEERK16cmLocalGeneratorRKSt6vectorI20cmGccStyleDependencySaISC_EEE3$_1E10_M_managerERSt9_Any_dataRKSJ_St18_Manager_operation.exit" [
    i32 0, label %"_ZNSt14_Function_base13_Base_managerIZN12_GLOBAL__N_112WriteDepfileE15cmDepfileFormatRSt14basic_ofstreamIcSt11char_traitsIcEERK16cmLocalGeneratorRKSt6vectorI20cmGccStyleDependencySaISC_EEE3$_1E10_M_managerERSt9_Any_dataRKSJ_St18_Manager_operation.exit.sink.split"
    i32 1, label %4
  ]

4:                                                ; preds = %3
  br label %"_ZNSt14_Function_base13_Base_managerIZN12_GLOBAL__N_112WriteDepfileE15cmDepfileFormatRSt14basic_ofstreamIcSt11char_traitsIcEERK16cmLocalGeneratorRKSt6vectorI20cmGccStyleDependencySaISC_EEE3$_1E10_M_managerERSt9_Any_dataRKSJ_St18_Manager_operation.exit.sink.split"

"_ZNSt14_Function_base13_Base_managerIZN12_GLOBAL__N_112WriteDepfileE15cmDepfileFormatRSt14basic_ofstreamIcSt11char_traitsIcEERK16cmLocalGeneratorRKSt6vectorI20cmGccStyleDependencySaISC_EEE3$_1E10_M_managerERSt9_Any_dataRKSJ_St18_Manager_operation.exit.sink.split": ; preds = %3, %4
  %.sink = phi ptr [ %1, %4 ], [ @"_ZTIZN12_GLOBAL__N_112WriteDepfileE15cmDepfileFormatRSt14basic_ofstreamIcSt11char_traitsIcEERK16cmLocalGeneratorRKSt6vectorI20cmGccStyleDependencySaISA_EEE3$_1", %3 ]
  store ptr %.sink, ptr %0, align 8, !tbaa !108
  br label %"_ZNSt14_Function_base13_Base_managerIZN12_GLOBAL__N_112WriteDepfileE15cmDepfileFormatRSt14basic_ofstreamIcSt11char_traitsIcEERK16cmLocalGeneratorRKSt6vectorI20cmGccStyleDependencySaISC_EEE3$_1E10_M_managerERSt9_Any_dataRKSJ_St18_Manager_operation.exit"

"_ZNSt14_Function_base13_Base_managerIZN12_GLOBAL__N_112WriteDepfileE15cmDepfileFormatRSt14basic_ofstreamIcSt11char_traitsIcEERK16cmLocalGeneratorRKSt6vectorI20cmGccStyleDependencySaISC_EEE3$_1E10_M_managerERSt9_Any_dataRKSJ_St18_Manager_operation.exit": ; preds = %"_ZNSt14_Function_base13_Base_managerIZN12_GLOBAL__N_112WriteDepfileE15cmDepfileFormatRSt14basic_ofstreamIcSt11char_traitsIcEERK16cmLocalGeneratorRKSt6vectorI20cmGccStyleDependencySaISC_EEE3$_1E10_M_managerERSt9_Any_dataRKSJ_St18_Manager_operation.exit.sink.split", %3
  ret i1 false
}